target datalayout = "e-m:e-p270:32:32-p271:32:32-p272:64:64-i64:64-i128:128-f80:128-n8:16:32:64-S128"
target triple = "x86_64-pc-linux-gnu"

@_mi_numa_node_count = hidden global i64 0, align 8

; Function Attrs: inlinehint nounwind uwtable
define internal i64 @_mi_os_numa_node_count() #4 {
  %1 = alloca i64, align 8
  %2 = alloca i64, align 8
  %3 = alloca i64, align 8
  %4 = alloca i32, align 4
  call void @llvm.lifetime.start.p0(i64 8, ptr %2) #9
  %5 = load atomic i64, ptr @_mi_numa_node_count monotonic, align 8
  store i64 %5, ptr %3, align 8
  %6 = load i64, ptr %3, align 8, !tbaa !14
  store i64 %6, ptr %2, align 8, !tbaa !14
  %7 = load i64, ptr %2, align 8, !tbaa !14
  %8 = icmp ugt i64 %7, 0
  %9 = xor i1 %8, true
  %10 = xor i1 %9, true
  %11 = zext i1 %10 to i32
  %12 = sext i32 %11 to i64
  %13 = call i64 @llvm.expect.i64(i64 %12, i64 1)
  %14 = icmp ne i64 %13, 0
  br i1 %14, label %15, label %17

15:                                               ; preds = %0
  %16 = load i64, ptr %2, align 8, !tbaa !14
  store i64 %16, ptr %1, align 8
  store i32 1, ptr %4, align 4
  br label %19

17:                                               ; preds = %0
  %18 = call i64 @_mi_os_numa_node_count_get() #8
  store i64 %18, ptr %1, align 8
  store i32 1, ptr %4, align 4
  br label %19

19:                                               ; preds = %17, %15
  call void @llvm.lifetime.end.p0(i64 8, ptr %2) #9
  %20 = load i64, ptr %1, align 8
  ret i64 %20
}

; Function Attrs: nounwind uwtable
define hidden i32 @_mi_os_numa_node_get() #0 {
  %1 = alloca i32, align 4
  %2 = alloca i64, align 8
  %3 = alloca i32, align 4
  %4 = alloca i64, align 8
  call void @llvm.lifetime.start.p0(i64 8, ptr %2) #9
  %5 = call i64 @_mi_os_numa_node_count() #8
  store i64 %5, ptr %2, align 8, !tbaa !14
  %6 = load i64, ptr %2, align 8, !tbaa !14
  %7 = icmp ule i64 %6, 1
  br i1 %7, label %8, label %9

8:                                                ; preds = %0
  store i32 0, ptr %1, align 4
  store i32 1, ptr %3, align 4
  br label %21

9:                                                ; preds = %0
  call void @llvm.lifetime.start.p0(i64 8, ptr %4) #9
  %10 = call i64 @_mi_prim_numa_node() #8
  store i64 %10, ptr %4, align 8, !tbaa !14
  %11 = load i64, ptr %4, align 8, !tbaa !14
  %12 = load i64, ptr %2, align 8, !tbaa !14
  %13 = icmp uge i64 %11, %12
  br i1 %13, label %14, label %18

14:                                               ; preds = %9
  %15 = load i64, ptr %4, align 8, !tbaa !14
  %16 = load i64, ptr %2, align 8, !tbaa !14
  %17 = urem i64 %15, %16
  store i64 %17, ptr %4, align 8, !tbaa !14
  br label %18

18:                                               ; preds = %14, %9
  %19 = load i64, ptr %4, align 8, !tbaa !14
  %20 = trunc i64 %19 to i32
  store i32 %20, ptr %1, align 4
  store i32 1, ptr %3, align 4
  call void @llvm.lifetime.end.p0(i64 8, ptr %4) #9
  br label %21

21:                                               ; preds = %18, %8
  call void @llvm.lifetime.end.p0(i64 8, ptr %2) #9
  %22 = load i32, ptr %1, align 4
  ret i32 %22
}