; Function Attrs: nounwind uwtable
define hidden i32 @_mi_os_numa_node_get() local_unnamed_addr #1 {
  %1 = load atomic i64, ptr @_mi_numa_node_count monotonic, align 8
  %.not.i = icmp eq i64 %1, 0
  br i1 %.not.i, label %2, label %_mi_os_numa_node_count.exit, !prof !30

2:                                                ; preds = %0
  %3 = tail call i64 @_mi_os_numa_node_count_get() #8
  br label %_mi_os_numa_node_count.exit

_mi_os_numa_node_count.exit:                      ; preds = %0, %2
  %.0.i = phi i64 [ %3, %2 ], [ %1, %0 ]
  %4 = icmp ult i64 %.0.i, 2
  br i1 %4, label %11, label %5

5:                                                ; preds = %_mi_os_numa_node_count.exit
  %6 = tail call i64 @_mi_prim_numa_node() #7
  %.not = icmp ult i64 %6, %.0.i
  br i1 %.not, label %9, label %7

7:                                                ; preds = %5
  %8 = urem i64 %6, %.0.i
  br label %9

9:                                                ; preds = %7, %5
  %.0 = phi i64 [ %8, %7 ], [ %6, %5 ]
  %10 = trunc i64 %.0 to i32
  br label %11

11:                                               ; preds = %_mi_os_numa_node_count.exit, %9
  %.07 = phi i32 [ %10, %9 ], [ 0, %_mi_os_numa_node_count.exit ]
  ret i32 %.07
}